target datalayout = "e-m:e-p270:32:32-p271:32:32-p272:64:64-i64:64-i128:128-f80:128-n8:16:32:64-S128"
target triple = "x86_64-pc-linux-gnu"

%"struct.Luau::EqSat::Id" = type { i32 }
%"struct.Luau::EqSat::Slice" = type { ptr, i64 }
%"class.std::optional.267" = type { %"struct.std::_Optional_base.268" }
%"struct.std::_Optional_base.268" = type { %"struct.std::_Optional_payload.270" }
%"struct.std::_Optional_payload.270" = type { %"struct.std::_Optional_payload_base.base.272", [7 x i8] }
%"struct.std::_Optional_payload_base.base.272" = type <{ %"union.std::_Optional_payload_base<unsigned long>::_Storage", i8 }>
%"union.std::_Optional_payload_base<unsigned long>::_Storage" = type { i64 }
%"struct.std::_Optional_payload_base.271" = type <{ %"union.std::_Optional_payload_base<unsigned long>::_Storage", i8, [7 x i8] }>
%class.anon.470 = type { ptr, ptr, ptr }

; Function Attrs: mustprogress nounwind uwtable
define linkonce_odr dso_local void @_ZNSt22_Optional_payload_baseImE8_StorageImLb1EEC2IJmEEESt10in_place_tDpOT_(ptr noundef nonnull align 8 dereferenceable(8) %0, ptr noundef nonnull align 8 dereferenceable(8) %1) unnamed_addr #5 comdat align 2 {
  %3 = alloca ptr, align 8
  %4 = alloca ptr, align 8
  store ptr %0, ptr %3, align 8, !tbaa !1172
  store ptr %1, ptr %4, align 8, !tbaa !65
  %5 = load ptr, ptr %3, align 8
  %6 = load ptr, ptr %4, align 8, !tbaa !65
  %7 = load i64, ptr %6, align 8, !tbaa !38
  store i64 %7, ptr %5, align 8, !tbaa !464
  ret void
}

; Function Attrs: mustprogress nounwind uwtable
define linkonce_odr dso_local void @_ZNSt22_Optional_payload_baseImE8_StorageImLb1EEC2Ev(ptr noundef nonnull align 8 dereferenceable(8) %0) unnamed_addr #5 comdat align 2 {
  %2 = alloca ptr, align 8
  store ptr %0, ptr %2, align 8, !tbaa !1172
  ret void
}

; Function Attrs: mustprogress uwtable
define linkonce_odr dso_local void @_ZNSt22_Optional_payload_baseImEC2IJmEEESt10in_place_tDpOT_(ptr noundef nonnull align 8 dereferenceable(9) %0, ptr noundef nonnull align 8 dereferenceable(8) %1) unnamed_addr #6 comdat align 2 {
  %3 = alloca ptr, align 8
  %4 = alloca ptr, align 8
  store ptr %0, ptr %3, align 8, !tbaa !1168
  store ptr %1, ptr %4, align 8, !tbaa !65
  %5 = load ptr, ptr %3, align 8
  %6 = getelementptr inbounds nuw %"struct.std::_Optional_payload_base.271", ptr %5, i32 0, i32 0
  %7 = load ptr, ptr %4, align 8, !tbaa !65
  call void @_ZNSt22_Optional_payload_baseImE8_StorageImLb1EEC2IJmEEESt10in_place_tDpOT_(ptr noundef nonnull align 8 dereferenceable(8) %6, ptr noundef nonnull align 8 dereferenceable(8) %7)
  %8 = getelementptr inbounds nuw %"struct.std::_Optional_payload_base.271", ptr %5, i32 0, i32 1
  store i8 1, ptr %8, align 8, !tbaa !1170
  ret void
}

; Function Attrs: mustprogress nounwind uwtable
define linkonce_odr dso_local void @_ZNSt22_Optional_payload_baseImEC2Ev(ptr noundef nonnull align 8 dereferenceable(9) %0) unnamed_addr #5 comdat align 2 {
  %2 = alloca ptr, align 8
  store ptr %0, ptr %2, align 8, !tbaa !1168
  %3 = load ptr, ptr %2, align 8
  %4 = getelementptr inbounds nuw %"struct.std::_Optional_payload_base.271", ptr %3, i32 0, i32 0
  call void @_ZNSt22_Optional_payload_baseImE8_StorageImLb1EEC2Ev(ptr noundef nonnull align 8 dereferenceable(8) %4) #4
  %5 = getelementptr inbounds nuw %"struct.std::_Optional_payload_base.271", ptr %3, i32 0, i32 1
  store i8 0, ptr %5, align 8, !tbaa !1170
  ret void
}

; Function Attrs: inlinehint mustprogress uwtable
define linkonce_odr dso_local void @_ZNSt17_Optional_payloadImLb1ELb1ELb1EECI2St22_Optional_payload_baseImEIJmEEESt10in_place_tDpOT_(ptr noundef nonnull align 8 dereferenceable(9) %0, ptr noundef nonnull align 8 dereferenceable(8) %1) unnamed_addr #8 comdat align 2 {
  %3 = alloca ptr, align 8
  %4 = alloca ptr, align 8
  store ptr %0, ptr %3, align 8, !tbaa !1166
  store ptr %1, ptr %4, align 8, !tbaa !65
  %5 = load ptr, ptr %3, align 8
  %6 = load ptr, ptr %4, align 8
  call void @_ZNSt22_Optional_payload_baseImEC2IJmEEESt10in_place_tDpOT_(ptr noundef nonnull align 8 dereferenceable(9) %5, ptr noundef nonnull align 8 dereferenceable(8) %6)
  ret void
}

; Function Attrs: mustprogress nounwind uwtable
define linkonce_odr dso_local void @_ZNSt17_Optional_payloadImLb1ELb1ELb1EEC2Ev(ptr noundef nonnull align 8 dereferenceable(9) %0) unnamed_addr #5 comdat align 2 {
  %2 = alloca ptr, align 8
  store ptr %0, ptr %2, align 8, !tbaa !1166
  %3 = load ptr, ptr %2, align 8
  call void @_ZNSt22_Optional_payload_baseImEC2Ev(ptr noundef nonnull align 8 dereferenceable(9) %3) #4
  ret void
}

; Function Attrs: noinline noreturn nounwind uwtable
define linkonce_odr hidden void @__clang_call_terminate(ptr noundef %0) #15 comdat {
  %2 = call ptr @__cxa_begin_catch(ptr %0) #4
  call void @_ZSt9terminatev() #25
  unreachable
}

; Function Attrs: mustprogress uwtable
define linkonce_odr dso_local void @_ZNSt14_Optional_baseImLb1ELb1EEC2IJmETnNSt9enable_ifIX18is_constructible_vImDpT_EEbE4typeELb0EEESt10in_place_tDpOS3_(ptr noundef nonnull align 8 dereferenceable(16) %0, ptr noundef nonnull align 8 dereferenceable(8) %1) unnamed_addr #6 comdat align 2 {
  %3 = alloca ptr, align 8
  %4 = alloca ptr, align 8
  store ptr %0, ptr %3, align 8, !tbaa !1164
  store ptr %1, ptr %4, align 8, !tbaa !65
  %5 = load ptr, ptr %3, align 8
  %6 = getelementptr inbounds nuw %"struct.std::_Optional_base.268", ptr %5, i32 0, i32 0
  %7 = load ptr, ptr %4, align 8, !tbaa !65
  call void @_ZNSt17_Optional_payloadImLb1ELb1ELb1EECI2St22_Optional_payload_baseImEIJmEEESt10in_place_tDpOT_(ptr noundef nonnull align 8 dereferenceable(9) %6, ptr noundef nonnull align 8 dereferenceable(8) %7)
  ret void
}

; Function Attrs: mustprogress nounwind uwtable
define linkonce_odr dso_local void @_ZNSt14_Optional_baseImLb1ELb1EEC2Ev(ptr noundef nonnull align 8 dereferenceable(16) %0) unnamed_addr #5 comdat align 2 {
  %2 = alloca ptr, align 8
  store ptr %0, ptr %2, align 8, !tbaa !1164
  %3 = load ptr, ptr %2, align 8
  %4 = getelementptr inbounds nuw %"struct.std::_Optional_base.268", ptr %3, i32 0, i32 0
  call void @_ZNSt17_Optional_payloadImLb1ELb1ELb1EEC2Ev(ptr noundef nonnull align 8 dereferenceable(9) %4) #4
  ret void
}

; Function Attrs: mustprogress nounwind uwtable
define linkonce_odr dso_local void @_ZNSt8optionalImEC2ImTnNSt9enable_ifIX7__and_vISt6__not_ISt7is_sameIS0_NSt9remove_cvINSt16remove_referenceIT_E4typeEE4typeEEES3_IS4_ISt10in_place_tSB_EESt16is_constructibleImJS7_EESt14is_convertibleIS7_mEEEbE4typeELb1EEEOS7_(ptr noundef nonnull align 8 dereferenceable(16) %0, ptr noundef nonnull align 8 dereferenceable(8) %1) unnamed_addr #5 comdat align 2 personality ptr @__gxx_personality_v0 {
  %3 = alloca ptr, align 8
  %4 = alloca ptr, align 8
  store ptr %0, ptr %3, align 8, !tbaa !462
  store ptr %1, ptr %4, align 8, !tbaa !65
  %5 = load ptr, ptr %3, align 8
  %6 = load ptr, ptr %4, align 8, !tbaa !65
  invoke void @_ZNSt14_Optional_baseImLb1ELb1EEC2IJmETnNSt9enable_ifIX18is_constructible_vImDpT_EEbE4typeELb0EEESt10in_place_tDpOS3_(ptr noundef nonnull align 8 dereferenceable(16) %5, ptr noundef nonnull align 8 dereferenceable(8) %6)
          to label %7 unwind label %8

7:                                                ; preds = %2
  ret void

8:                                                ; preds = %2
  %9 = landingpad { ptr, i32 }
          catch ptr null
  %10 = extractvalue { ptr, i32 } %9, 0
  call void @__clang_call_terminate(ptr %10) #25
  unreachable
}

; Function Attrs: mustprogress nounwind uwtable
define linkonce_odr dso_local void @_ZNSt8optionalImEC2ESt9nullopt_t(ptr noundef nonnull align 8 dereferenceable(16) %0) unnamed_addr #5 comdat align 2 {
  %2 = alloca ptr, align 8
  store ptr %0, ptr %2, align 8, !tbaa !462
  %3 = load ptr, ptr %2, align 8
  call void @_ZNSt14_Optional_baseImLb1ELb1EEC2Ev(ptr noundef nonnull align 8 dereferenceable(16) %3) #4
  ret void
}

; Function Attrs: mustprogress nounwind uwtable
define linkonce_odr dso_local noundef ptr @_ZNK4Luau5EqSat5SliceIKNS0_2IdEE3endEv(ptr noundef nonnull align 8 dereferenceable(16) %0) #5 comdat align 2 {
  %2 = alloca ptr, align 8
  store ptr %0, ptr %2, align 8, !tbaa !48
  %3 = load ptr, ptr %2, align 8
  %4 = getelementptr inbounds nuw %"struct.Luau::EqSat::Slice", ptr %3, i32 0, i32 0
  %5 = load ptr, ptr %4, align 8, !tbaa !50
  %6 = getelementptr inbounds nuw %"struct.Luau::EqSat::Slice", ptr %3, i32 0, i32 1
  %7 = load i64, ptr %6, align 8, !tbaa !52
  %8 = getelementptr inbounds nuw %"struct.Luau::EqSat::Id", ptr %5, i64 %7
  ret ptr %8
}

; Function Attrs: mustprogress nounwind uwtable
define linkonce_odr dso_local noundef ptr @_ZNK4Luau5EqSat5SliceIKNS0_2IdEE5beginEv(ptr noundef nonnull align 8 dereferenceable(16) %0) #5 comdat align 2 {
  %2 = alloca ptr, align 8
  store ptr %0, ptr %2, align 8, !tbaa !48
  %3 = load ptr, ptr %2, align 8
  %4 = getelementptr inbounds nuw %"struct.Luau::EqSat::Slice", ptr %3, i32 0, i32 0
  %5 = load ptr, ptr %4, align 8, !tbaa !50
  ret ptr %5
}

; Function Attrs: inlinehint mustprogress uwtable
define internal { i64, i8 } @"_ZZN4Luau19EqSatSimplificationL11computeCostERSt13unordered_mapINS_5EqSat2IdEmSt4hashIS3_ESt8equal_toIS3_ESaISt4pairIKS3_mEEERKNS2_6EGraphINS2_8LanguageIJNS0_4TNilENS0_8TBooleanENS0_7TNumberENS0_7TStringENS0_7TThreadENS0_12TTopFunctionENS0_9TTopTableENS0_9TTopClassENS0_7TBufferENS0_7TOpaqueENS0_8SBooleanENS0_7SStringENS0_9TFunctionENS0_6TTableENS0_14TImportedTableENS0_6TClassENS0_4TAnyENS0_6TErrorENS0_8TUnknownENS0_6TNeverENS0_5UnionENS0_12IntersectionENS0_8NegationENS0_8TTypeFunENS0_7InvalidENS0_9TNoRefineENS0_6TBoundEEEENS0_8SimplifyEEESD_S3_ENK3$_1clENS2_5SliceIS9_EEm"(ptr noundef nonnull align 8 dereferenceable(24) %0, ptr %1, i64 %2, i64 noundef %3) #8 align 2 {
  %5 = alloca %"class.std::optional.267", align 8
  %6 = alloca %"struct.Luau::EqSat::Slice", align 8
  %7 = alloca ptr, align 8
  %8 = alloca i64, align 8
  %9 = alloca i64, align 8
  %10 = alloca ptr, align 8
  %11 = alloca ptr, align 8
  %12 = alloca ptr, align 8
  %13 = alloca i32, align 4
  %14 = alloca %"struct.Luau::EqSat::Id", align 4
  %15 = alloca %"struct.Luau::EqSat::Id", align 4
  %16 = getelementptr inbounds nuw { ptr, i64 }, ptr %6, i32 0, i32 0
  store ptr %1, ptr %16, align 8
  %17 = getelementptr inbounds nuw { ptr, i64 }, ptr %6, i32 0, i32 1
  store i64 %2, ptr %17, align 8
  store ptr %0, ptr %7, align 8, !tbaa !104
  store i64 %3, ptr %8, align 8, !tbaa !38
  %18 = load ptr, ptr %7, align 8
  call void @llvm.lifetime.start.p0(i64 8, ptr %9) #4
  store i64 0, ptr %9, align 8, !tbaa !38
  call void @llvm.lifetime.start.p0(i64 8, ptr %10) #4
  store ptr %6, ptr %10, align 8, !tbaa !48
  call void @llvm.lifetime.start.p0(i64 8, ptr %11) #4
  %19 = load ptr, ptr %10, align 8, !tbaa !48
  %20 = call noundef ptr @_ZNK4Luau5EqSat5SliceIKNS0_2IdEE5beginEv(ptr noundef nonnull align 8 dereferenceable(16) %19)
  store ptr %20, ptr %11, align 8, !tbaa !28
  call void @llvm.lifetime.start.p0(i64 8, ptr %12) #4
  %21 = load ptr, ptr %10, align 8, !tbaa !48
  %22 = call noundef ptr @_ZNK4Luau5EqSat5SliceIKNS0_2IdEE3endEv(ptr noundef nonnull align 8 dereferenceable(16) %21)
  store ptr %22, ptr %12, align 8, !tbaa !28
  br label %23

23:                                               ; preds = %49, %4
  %24 = load ptr, ptr %11, align 8, !tbaa !28
  %25 = load ptr, ptr %12, align 8, !tbaa !28
  %26 = icmp ne ptr %24, %25
  br i1 %26, label %28, label %27

27:                                               ; preds = %23
  store i32 2, ptr %13, align 4
  br label %52

28:                                               ; preds = %23
  call void @llvm.lifetime.start.p0(i64 4, ptr %14) #4
  %29 = load ptr, ptr %11, align 8, !tbaa !28
  call void @llvm.memcpy.p0.p0.i64(ptr align 4 %14, ptr align 4 %29, i64 4, i1 false), !tbaa.struct !47
  %30 = getelementptr inbounds nuw %class.anon.470, ptr %18, i32 0, i32 0
  %31 = load ptr, ptr %30, align 8, !tbaa !1224
  %32 = getelementptr inbounds nuw %class.anon.470, ptr %18, i32 0, i32 1
  %33 = load ptr, ptr %32, align 8, !tbaa !1226
  %34 = getelementptr inbounds nuw %class.anon.470, ptr %18, i32 0, i32 2
  %35 = load ptr, ptr %34, align 8, !tbaa !1227
  call void @llvm.memcpy.p0.p0.i64(ptr align 4 %15, ptr align 4 %14, i64 4, i1 false), !tbaa.struct !47
  %36 = getelementptr inbounds nuw %"struct.Luau::EqSat::Id", ptr %15, i32 0, i32 0
  %37 = load i32, ptr %36, align 4
  %38 = call noundef i64 @_ZN4Luau19EqSatSimplificationL11computeCostERSt13unordered_mapINS_5EqSat2IdEmSt4hashIS3_ESt8equal_toIS3_ESaISt4pairIKS3_mEEERKNS2_6EGraphINS2_8LanguageIJNS0_4TNilENS0_8TBooleanENS0_7TNumberENS0_7TStringENS0_7TThreadENS0_12TTopFunctionENS0_9TTopTableENS0_9TTopClassENS0_7TBufferENS0_7TOpaqueENS0_8SBooleanENS0_7SStringENS0_9TFunctionENS0_6TTableENS0_14TImportedTableENS0_6TClassENS0_4TAnyENS0_6TErrorENS0_8TUnknownENS0_6TNeverENS0_5UnionENS0_12IntersectionENS0_8NegationENS0_8TTypeFunENS0_7InvalidENS0_9TNoRefineENS0_6TBoundEEEENS0_8SimplifyEEESD_S3_(ptr noundef nonnull align 8 dereferenceable(56) %31, ptr noundef nonnull align 8 dereferenceable(192) %33, ptr noundef nonnull align 8 dereferenceable(56) %35, i32 %37)
  %39 = load i64, ptr %9, align 8, !tbaa !38
  %40 = add i64 %39, %38
  store i64 %40, ptr %9, align 8, !tbaa !38
  %41 = load i64, ptr %9, align 8, !tbaa !38
  %42 = load i64, ptr %8, align 8, !tbaa !38
  %43 = icmp ugt i64 %41, %42
  br i1 %43, label %44, label %45

44:                                               ; preds = %28
  call void @_ZNSt8optionalImEC2ESt9nullopt_t(ptr noundef nonnull align 8 dereferenceable(16) %5) #4
  store i32 1, ptr %13, align 4
  br label %46

45:                                               ; preds = %28
  store i32 0, ptr %13, align 4
  br label %46

46:                                               ; preds = %45, %44
  call void @llvm.lifetime.end.p0(i64 4, ptr %14) #4
  %47 = load i32, ptr %13, align 4
  switch i32 %47, label %52 [
    i32 0, label %48
  ]

48:                                               ; preds = %46
  br label %49

49:                                               ; preds = %48
  %50 = load ptr, ptr %11, align 8, !tbaa !28
  %51 = getelementptr inbounds nuw %"struct.Luau::EqSat::Id", ptr %50, i32 1
  store ptr %51, ptr %11, align 8, !tbaa !28
  br label %23

52:                                               ; preds = %46, %27
  call void @llvm.lifetime.end.p0(i64 8, ptr %12) #4
  call void @llvm.lifetime.end.p0(i64 8, ptr %11) #4
  call void @llvm.lifetime.end.p0(i64 8, ptr %10) #4
  %53 = load i32, ptr %13, align 4
  switch i32 %53, label %55 [
    i32 2, label %54
  ]

54:                                               ; preds = %52
  call void @_ZNSt8optionalImEC2ImTnNSt9enable_ifIX7__and_vISt6__not_ISt7is_sameIS0_NSt9remove_cvINSt16remove_referenceIT_E4typeEE4typeEEES3_IS4_ISt10in_place_tSB_EESt16is_constructibleImJS7_EESt14is_convertibleIS7_mEEEbE4typeELb1EEEOS7_(ptr noundef nonnull align 8 dereferenceable(16) %5, ptr noundef nonnull align 8 dereferenceable(8) %9) #4
  store i32 1, ptr %13, align 4
  br label %55

55:                                               ; preds = %54, %52
  call void @llvm.lifetime.end.p0(i64 8, ptr %9) #4
  %56 = getelementptr inbounds nuw %"class.std::optional.267", ptr %5, i32 0, i32 0
  %57 = getelementptr inbounds nuw %"struct.std::_Optional_base.268", ptr %56, i32 0, i32 0
  %58 = load { i64, i8 }, ptr %57, align 8
  ret { i64, i8 } %58
}