; Function Attrs: inlinehint mustprogress uwtable
define internal fastcc { i64, i8 } @"_ZZN4Luau19EqSatSimplificationL11computeCostERSt13unordered_mapINS_5EqSat2IdEmSt4hashIS3_ESt8equal_toIS3_ESaISt4pairIKS3_mEEERKNS2_6EGraphINS2_8LanguageIJNS0_4TNilENS0_8TBooleanENS0_7TNumberENS0_7TStringENS0_7TThreadENS0_12TTopFunctionENS0_9TTopTableENS0_9TTopClassENS0_7TBufferENS0_7TOpaqueENS0_8SBooleanENS0_7SStringENS0_9TFunctionENS0_6TTableENS0_14TImportedTableENS0_6TClassENS0_4TAnyENS0_6TErrorENS0_8TUnknownENS0_6TNeverENS0_5UnionENS0_12IntersectionENS0_8NegationENS0_8TTypeFunENS0_7InvalidENS0_9TNoRefineENS0_6TBoundEEEENS0_8SimplifyEEESD_S3_ENK3$_1clENS2_5SliceIS9_EEm"(ptr noundef nonnull readonly align 8 captures(none) dereferenceable(24) %0, ptr readonly %1, i64 %2, i64 noundef %3) unnamed_addr #11 align 2 personality ptr @__gxx_personality_v0 {
  %5 = getelementptr inbounds nuw %"struct.Luau::EqSat::Id", ptr %1, i64 %2
  %.not19 = icmp eq i64 %2, 0
  br i1 %.not19, label %.critedge14, label %.critedge.lr.ph

.critedge.lr.ph:                                  ; preds = %4
  %6 = getelementptr inbounds nuw i8, ptr %0, i64 8
  %7 = getelementptr inbounds nuw i8, ptr %0, i64 16
  br label %.critedge

8:                                                ; preds = %.critedge
  %9 = getelementptr inbounds nuw i8, ptr %.021, i64 4
  %.not = icmp eq ptr %9, %5
  br i1 %.not, label %.critedge14, label %.critedge

.critedge:                                        ; preds = %.critedge.lr.ph, %8
  %.021 = phi ptr [ %1, %.critedge.lr.ph ], [ %9, %8 ]
  %.01820 = phi i64 [ 0, %.critedge.lr.ph ], [ %14, %8 ]
  %.sroa.02.0.copyload = load i32, ptr %.021, align 4, !tbaa !4
  %10 = load ptr, ptr %0, align 8, !tbaa !995
  %11 = load ptr, ptr %6, align 8, !tbaa !997
  %12 = load ptr, ptr %7, align 8, !tbaa !998
  %13 = tail call fastcc noundef i64 @_ZN4Luau19EqSatSimplificationL11computeCostERSt13unordered_mapINS_5EqSat2IdEmSt4hashIS3_ESt8equal_toIS3_ESaISt4pairIKS3_mEEERKNS2_6EGraphINS2_8LanguageIJNS0_4TNilENS0_8TBooleanENS0_7TNumberENS0_7TStringENS0_7TThreadENS0_12TTopFunctionENS0_9TTopTableENS0_9TTopClassENS0_7TBufferENS0_7TOpaqueENS0_8SBooleanENS0_7SStringENS0_9TFunctionENS0_6TTableENS0_14TImportedTableENS0_6TClassENS0_4TAnyENS0_6TErrorENS0_8TUnknownENS0_6TNeverENS0_5UnionENS0_12IntersectionENS0_8NegationENS0_8TTypeFunENS0_7InvalidENS0_9TNoRefineENS0_6TBoundEEEENS0_8SimplifyEEESD_S3_(ptr noundef nonnull align 8 dereferenceable(56) %10, ptr noundef nonnull align 8 dereferenceable(192) %11, ptr noundef nonnull align 8 dereferenceable(56) %12, i32 %.sroa.02.0.copyload)
  %14 = add i64 %13, %.01820
  %.not12 = icmp ugt i64 %14, %3
  br i1 %.not12, label %.critedge14, label %8

.critedge14:                                      ; preds = %.critedge, %8, %4
  %.018.lcssa = phi i64 [ 0, %4 ], [ %14, %8 ], [ %.01820, %.critedge ]
  %.sroa.2.0 = phi i8 [ 1, %4 ], [ 1, %8 ], [ 0, %.critedge ]
  %.fca.0.insert = insertvalue { i64, i8 } poison, i64 %.018.lcssa, 0
  %.fca.1.insert = insertvalue { i64, i8 } %.fca.0.insert, i8 %.sroa.2.0, 1
  ret { i64, i8 } %.fca.1.insert
}